target datalayout = "e-m:e-p270:32:32-p271:32:32-p272:64:64-i64:64-i128:128-f80:128-n8:16:32:64-S128"
target triple = "x86_64-pc-linux-gnu"

%class.V3ErrorCode = type { i8 }

; Function Attrs: mustprogress uwtable
define linkonce_odr dso_local void @_ZN8FileLine7warnOffE11V3ErrorCodeb(ptr noundef nonnull align 8 dereferenceable(40) %0, i8 %1, i1 noundef zeroext %2) #4 comdat align 2 {
  %4 = alloca %class.V3ErrorCode, align 1
  %5 = alloca ptr, align 8
  %6 = alloca i8, align 1
  %7 = alloca %class.V3ErrorCode, align 1
  %8 = getelementptr inbounds %class.V3ErrorCode, ptr %4, i32 0, i32 0
  store i8 %1, ptr %8, align 1
  store ptr %0, ptr %5, align 8
  %9 = zext i1 %2 to i8
  store i8 %9, ptr %6, align 1
  %10 = load ptr, ptr %5, align 8
  call void @llvm.memcpy.p0.p0.i64(ptr align 1 %7, ptr align 1 %4, i64 1, i1 false)
  %11 = load i8, ptr %6, align 1
  %12 = trunc i8 %11 to i1
  %13 = xor i1 %12, true
  %14 = getelementptr inbounds %class.V3ErrorCode, ptr %7, i32 0, i32 0
  %15 = load i8, ptr %14, align 1
  call void @_ZN8FileLine6warnOnE11V3ErrorCodeb(ptr noundef nonnull align 8 dereferenceable(40) %10, i8 %15, i1 noundef zeroext %13)
  ret void
}

; Function Attrs: mustprogress nounwind uwtable
define linkonce_odr dso_local void @_ZN11V3ErrorCodeC2Ei(ptr noundef nonnull align 1 dereferenceable(1) %0, i32 noundef %1) unnamed_addr #5 comdat align 2 {
  %3 = alloca ptr, align 8
  %4 = alloca i32, align 4
  store ptr %0, ptr %3, align 8
  store i32 %1, ptr %4, align 4
  %5 = load ptr, ptr %3, align 8
  %6 = getelementptr inbounds %class.V3ErrorCode, ptr %5, i32 0, i32 0
  %7 = load i32, ptr %4, align 4
  %8 = trunc i32 %7 to i8
  store i8 %8, ptr %6, align 1
  ret void
}

; Function Attrs: mustprogress uwtable
define dso_local void @_ZN8FileLine12warnStyleOffEb(ptr noundef nonnull align 8 dereferenceable(40) %0, i1 noundef zeroext %1) #4 align 2 {
  %3 = alloca ptr, align 8
  %4 = alloca i8, align 1
  %5 = alloca i32, align 4
  %6 = alloca %class.V3ErrorCode, align 1
  %7 = alloca %class.V3ErrorCode, align 1
  store ptr %0, ptr %3, align 8
  %8 = zext i1 %1 to i8
  store i8 %8, ptr %4, align 1
  %9 = load ptr, ptr %3, align 8
  store i32 0, ptr %5, align 4
  br label %10

10:                                               ; preds = %22, %2
  %11 = load i32, ptr %5, align 4
  %12 = icmp slt i32 %11, 119
  br i1 %12, label %13, label %25

13:                                               ; preds = %10
  %14 = load i32, ptr %5, align 4
  call void @_ZN11V3ErrorCodeC2Ei(ptr noundef nonnull align 1 dereferenceable(1) %6, i32 noundef %14)
  %15 = call noundef zeroext i1 @_ZNK11V3ErrorCode10styleErrorEv(ptr noundef nonnull align 1 dereferenceable(1) %6)
  br i1 %15, label %16, label %21

16:                                               ; preds = %13
  call void @llvm.memcpy.p0.p0.i64(ptr align 1 %7, ptr align 1 %6, i64 1, i1 false)
  %17 = load i8, ptr %4, align 1
  %18 = trunc i8 %17 to i1
  %19 = getelementptr inbounds %class.V3ErrorCode, ptr %7, i32 0, i32 0
  %20 = load i8, ptr %19, align 1
  call void @_ZN8FileLine7warnOffE11V3ErrorCodeb(ptr noundef nonnull align 8 dereferenceable(40) %9, i8 %20, i1 noundef zeroext %18)
  br label %21

21:                                               ; preds = %16, %13
  br label %22

22:                                               ; preds = %21
  %23 = load i32, ptr %5, align 4
  %24 = add nsw i32 %23, 1
  store i32 %24, ptr %5, align 4
  br label %10, !llvm.loop !19

25:                                               ; preds = %10
  ret void
}