; Function Attrs: mustprogress uwtable
define dso_local void @_ZN8FileLine12warnStyleOffEb(ptr noundef nonnull align 8 dereferenceable(40) %0, i1 noundef zeroext %1) local_unnamed_addr #3 align 2 {
  %3 = alloca %class.V3ErrorCode, align 1
  %4 = xor i1 %1, true
  br label %5

5:                                                ; preds = %2, %9
  %.04 = phi i32 [ 0, %2 ], [ %10, %9 ]
  %6 = trunc i32 %.04 to i8
  store i8 %6, ptr %3, align 1
  %7 = call noundef zeroext i1 @_ZNK11V3ErrorCode10styleErrorEv(ptr noundef nonnull align 1 dereferenceable(1) %3)
  br i1 %7, label %8, label %9

8:                                                ; preds = %5
  %.sroa.0.0.copyload = load i8, ptr %3, align 1
  call void @_ZN8FileLine6warnOnE11V3ErrorCodeb(ptr noundef nonnull align 8 dereferenceable(40) %0, i8 %.sroa.0.0.copyload, i1 noundef zeroext %4)
  br label %9

9:                                                ; preds = %5, %8
  %10 = add nuw nsw i32 %.04, 1
  %exitcond.not = icmp eq i32 %10, 119
  br i1 %exitcond.not, label %11, label %5, !llvm.loop !157

11:                                               ; preds = %9
  ret void
}